(dp0
I2
(dp1
S'7,7'
p2
(dp3
S'unsuited'
p4
F0.5091666666666667
sS'suited'
p5
S''
p6
ssS'5,8'
p7
(dp8
g4
F0.26
sg5
F0.3075
ssS'5,9'
p9
(dp10
g4
F0.23666666666666666
sg5
F0.30416666666666664
ssS'3,8'
p11
(dp12
g4
F0.23833333333333334
sg5
F0.2733333333333333
ssS'3,9'
p13
(dp14
g4
F0.23166666666666666
sg5
F0.2916666666666667
ssS'3,4'
p15
(dp16
g4
F0.24333333333333335
sg5
F0.2808333333333333
ssS'3,5'
p17
(dp18
g4
F0.235
sg5
F0.2658333333333333
ssS'3,6'
p19
(dp20
g4
F0.22583333333333333
sg5
F0.2475
ssS'3,7'
p21
(dp22
g4
F0.22666666666666666
sg5
F0.2608333333333333
ssS'5,6'
p23
(dp24
g4
F0.2608333333333333
sg5
F0.3175
ssS'5,7'
p25
(dp26
g4
F0.23833333333333334
sg5
F0.31333333333333335
ssS'3,3'
p27
(dp28
g4
F0.4216666666666667
sg5
g6
ssS'3,14'
p29
(dp30
g4
F0.265
sg5
F0.3491666666666667
ssS'3,12'
p31
(dp32
g4
F0.24416666666666667
sg5
F0.2775
ssS'3,13'
p33
(dp34
g4
F0.25833333333333336
sg5
F0.29333333333333333
ssS'3,10'
p35
(dp36
g4
F0.22166666666666668
sg5
F0.27166666666666667
ssS'3,11'
p37
(dp38
g4
F0.23166666666666666
sg5
F0.27416666666666667
ssS'5,14'
p39
(dp40
g4
F0.29833333333333334
sg5
F0.31833333333333336
ssS'13,13'
p41
(dp42
g4
F0.5841666666666666
sg5
g6
ssS'5,10'
p43
(dp44
g4
F0.2475
sg5
F0.30666666666666664
ssS'5,11'
p45
(dp46
g4
F0.23916666666666667
sg5
F0.30333333333333334
ssS'13,14'
p47
(dp48
g4
F0.38
sg5
F0.4075
ssS'5,13'
p49
(dp50
g4
F0.27416666666666667
sg5
F0.29833333333333334
ssS'14,14'
p51
(dp52
g4
F0.6333333333333333
sg5
g6
ssS'11,11'
p53
(dp54
g4
F0.5708333333333333
sg5
g6
ssS'11,12'
p55
(dp56
g4
F0.3433333333333333
sg5
F0.37416666666666665
ssS'11,13'
p57
(dp58
g4
F0.37666666666666665
sg5
F0.4008333333333333
ssS'11,14'
p59
(dp60
g4
F0.35
sg5
F0.395
ssS'10,14'
p61
(dp62
g4
F0.3625
sg5
F0.40166666666666667
ssS'10,13'
p63
(dp64
g4
F0.34
sg5
F0.4041666666666667
ssS'10,12'
p65
(dp66
g4
F0.34
sg5
F0.39416666666666667
ssS'10,11'
p67
(dp68
g4
F0.325
sg5
F0.36833333333333335
ssS'10,10'
p69
(dp70
g4
F0.5358333333333334
sg5
g6
ssS'6,9'
p71
(dp72
g4
F0.25833333333333336
sg5
F0.31166666666666665
ssS'6,8'
p73
(dp74
g4
F0.2608333333333333
sg5
F0.29833333333333334
ssS'6,7'
p75
(dp76
g4
F0.2808333333333333
sg5
F0.31166666666666665
ssS'6,6'
p77
(dp78
g4
F0.4508333333333333
sg5
g6
ssS'6,14'
p79
(dp80
g4
F0.2991666666666667
sg5
F0.3441666666666667
ssS'6,11'
p81
(dp82
g4
F0.23166666666666666
sg5
F0.3233333333333333
ssS'6,10'
p83
(dp84
g4
F0.26666666666666666
sg5
F0.3258333333333333
ssS'6,13'
p85
(dp86
g4
F0.26916666666666667
sg5
F0.315
ssS'6,12'
p87
(dp88
g4
F0.26416666666666666
sg5
F0.30833333333333335
ssS'8,9'
p89
(dp90
g4
F0.28583333333333333
sg5
F0.3308333333333333
ssS'8,8'
p91
(dp92
g4
F0.5125
sg5
g6
ssS'12,13'
p93
(dp94
g4
F0.35
sg5
F0.4125
ssS'12,12'
p95
(dp96
g4
F0.5425
sg5
g6
ssS'12,14'
p97
(dp98
g4
F0.37583333333333335
sg5
F0.4266666666666667
ssS'4,9'
p99
(dp100
g4
F0.22583333333333333
sg5
F0.30333333333333334
ssS'4,8'
p101
(dp102
g4
F0.23333333333333334
sg5
F0.2941666666666667
ssS'2,9'
p103
(dp104
g4
F0.23166666666666666
sg5
F0.2608333333333333
ssS'2,8'
p105
(dp106
g4
F0.235
sg5
F0.2575
ssS'2,5'
p107
(dp108
g4
F0.22666666666666666
sg5
F0.2833333333333333
ssS'2,4'
p109
(dp110
g4
F0.23083333333333333
sg5
F0.2725
ssS'2,7'
p111
(dp112
g4
F0.20333333333333334
sg5
F0.25916666666666666
ssS'2,6'
p113
(dp114
g4
F0.21083333333333334
sg5
F0.28583333333333333
ssS'2,3'
p115
(dp116
g4
F0.21583333333333332
sg5
F0.2708333333333333
ssS'2,2'
p117
(dp118
g4
F0.41583333333333333
sg5
g6
ssS'4,7'
p119
(dp120
g4
F0.25583333333333336
sg5
F0.2891666666666667
ssS'4,6'
p121
(dp122
g4
F0.24166666666666667
sg5
F0.2925
ssS'4,5'
p123
(dp124
g4
F0.27
sg5
F0.2941666666666667
ssS'4,4'
p125
(dp126
g4
F0.4533333333333333
sg5
g6
ssS'2,11'
p127
(dp128
g4
F0.22416666666666665
sg5
F0.2833333333333333
ssS'2,10'
p129
(dp130
g4
F0.22166666666666668
sg5
F0.2775
ssS'2,13'
p131
(dp132
g4
F0.245
sg5
F0.31166666666666665
ssS'2,12'
p133
(dp134
g4
F0.24333333333333335
sg5
F0.2758333333333333
ssS'2,14'
p135
(dp136
g4
F0.275
sg5
F0.3258333333333333
ssS'5,5'
p137
(dp138
g4
F0.4575
sg5
g6
ssS'8,13'
p139
(dp140
g4
F0.2758333333333333
sg5
F0.3591666666666667
ssS'8,12'
p141
(dp142
g4
F0.285
sg5
F0.34
ssS'8,11'
p143
(dp144
g4
F0.2925
sg5
F0.3258333333333333
ssS'8,10'
p145
(dp146
g4
F0.2891666666666667
sg5
F0.36083333333333334
ssS'8,14'
p147
(dp148
g4
F0.3258333333333333
sg5
F0.35
ssS'7,12'
p149
(dp150
g4
F0.28833333333333333
sg5
F0.295
ssS'7,13'
p151
(dp152
g4
F0.2675
sg5
F0.36
ssS'7,10'
p153
(dp154
g4
F0.29083333333333333
sg5
F0.335
ssS'7,11'
p155
(dp156
g4
F0.2875
sg5
F0.32
ssS'7,14'
p157
(dp158
g4
F0.2816666666666667
sg5
F0.3408333333333333
ssS'4,14'
p159
(dp160
g4
F0.25916666666666666
sg5
F0.3591666666666667
ssS'4,13'
p161
(dp162
g4
F0.2891666666666667
sg5
F0.32166666666666666
ssS'4,12'
p163
(dp164
g4
F0.23083333333333333
sg5
F0.3025
ssS'4,11'
p165
(dp166
g4
F0.26
sg5
F0.3016666666666667
ssS'4,10'
p167
(dp168
g4
F0.2725
sg5
F0.30083333333333334
ssS'7,8'
p169
(dp170
g4
F0.27666666666666667
sg5
F0.3233333333333333
ssS'7,9'
p171
(dp172
g4
F0.2733333333333333
sg5
F0.32083333333333336
ssS'9,9'
p173
(dp174
g4
F0.5175
sg5
g6
ssS'5,12'
p175
(dp176
g4
F0.245
sg5
F0.31
ssS'9,10'
p177
(dp178
g4
F0.29583333333333334
sg5
F0.38
ssS'9,11'
p179
(dp180
g4
F0.30583333333333335
sg5
F0.3725
ssS'9,12'
p181
(dp182
g4
F0.2916666666666667
sg5
F0.3475
ssS'9,13'
p183
(dp184
g4
F0.33416666666666667
sg5
F0.38166666666666665
ssS'9,14'
p185
(dp186
g4
F0.3525
sg5
F0.37083333333333335
sssI3
(dp187
S'7,7'
p188
(dp189
g4
F0.37416666666666665
sg5
g6
ssS'5,8'
p190
(dp191
g4
F0.18083333333333335
sg5
F0.23083333333333333
ssS'5,9'
p192
(dp193
g4
F0.16166666666666665
sg5
F0.22083333333333333
ssS'3,8'
p194
(dp195
g4
F0.15833333333333333
sg5
F0.1975
ssS'3,9'
p196
(dp197
g4
F0.14666666666666667
sg5
F0.2125
ssS'3,4'
p198
(dp199
g4
F0.15833333333333333
sg5
F0.2275
ssS'3,5'
p200
(dp201
g4
F0.17333333333333334
sg5
F0.2225
ssS'3,6'
p202
(dp203
g4
F0.15666666666666668
sg5
F0.21916666666666668
ssS'3,7'
p204
(dp205
g4
F0.14
sg5
F0.19583333333333333
ssS'5,6'
p206
(dp207
g4
F0.1925
sg5
F0.2425
ssS'5,7'
p208
(dp209
g4
F0.16333333333333333
sg5
F0.23833333333333334
ssS'3,3'
p210
(dp211
g4
F0.3616666666666667
sg5
g6
ssS'3,14'
p212
(dp213
g4
F0.1825
sg5
F0.24583333333333332
ssS'3,12'
p214
(dp215
g4
F0.16833333333333333
sg5
F0.22333333333333333
ssS'3,13'
p216
(dp217
g4
F0.15166666666666667
sg5
F0.23833333333333334
ssS'3,10'
p218
(dp219
g4
F0.17416666666666666
sg5
F0.23916666666666667
ssS'3,11'
p220
(dp221
g4
F0.16083333333333333
sg5
F0.21
ssS'5,14'
p222
(dp223
g4
F0.19333333333333333
sg5
F0.255
ssS'13,13'
p224
(dp225
g4
F0.485
sg5
g6
ssS'5,10'
p226
(dp227
g4
F0.18416666666666667
sg5
F0.24583333333333332
ssS'5,11'
p228
(dp229
g4
F0.15666666666666668
sg5
F0.2275
ssS'13,14'
p230
(dp231
g4
F0.2633333333333333
sg5
F0.31916666666666665
ssS'5,13'
p232
(dp233
g4
F0.17
sg5
F0.24666666666666667
ssS'14,14'
p234
(dp235
g4
F0.4816666666666667
sg5
g6
ssS'11,11'
p236
(dp237
g4
F0.44666666666666666
sg5
g6
ssS'11,12'
p238
(dp239
g4
F0.25166666666666665
sg5
F0.3
ssS'11,13'
p240
(dp241
g4
F0.25583333333333336
sg5
F0.30083333333333334
ssS'11,14'
p242
(dp243
g4
F0.26666666666666666
sg5
F0.31333333333333335
ssS'10,14'
p244
(dp245
g4
F0.24
sg5
F0.295
ssS'10,13'
p246
(dp247
g4
F0.25416666666666665
sg5
F0.2991666666666667
ssS'10,12'
p248
(dp249
g4
F0.24333333333333335
sg5
F0.3
ssS'10,11'
p250
(dp251
g4
F0.2375
sg5
F0.28833333333333333
ssS'10,10'
p252
(dp253
g4
F0.4533333333333333
sg5
g6
ssS'6,9'
p254
(dp255
g4
F0.19416666666666665
sg5
F0.24416666666666667
ssS'6,8'
p256
(dp257
g4
F0.18833333333333332
sg5
F0.23416666666666666
ssS'6,7'
p258
(dp259
g4
F0.18
sg5
F0.24333333333333335
ssS'6,6'
p260
(dp261
g4
F0.3625
sg5
g6
ssS'6,14'
p262
(dp263
g4
F0.2025
sg5
F0.27416666666666667
ssS'6,11'
p264
(dp265
g4
F0.18666666666666668
sg5
F0.22583333333333333
ssS'6,10'
p266
(dp267
g4
F0.1925
sg5
F0.23333333333333334
ssS'6,13'
p268
(dp269
g4
F0.21
sg5
F0.25
ssS'6,12'
p270
(dp271
g4
F0.195
sg5
F0.23583333333333334
ssS'8,9'
p272
(dp273
g4
F0.22333333333333333
sg5
F0.26166666666666666
ssS'8,8'
p274
(dp275
g4
F0.41583333333333333
sg5
g6
ssS'12,13'
p276
(dp277
g4
F0.265
sg5
F0.32166666666666666
ssS'12,12'
p278
(dp279
g4
F0.4666666666666667
sg5
g6
ssS'12,14'
p280
(dp281
g4
F0.2633333333333333
sg5
F0.33416666666666667
ssS'4,9'
p282
(dp283
g4
F0.18
sg5
F0.22416666666666665
ssS'4,8'
p284
(dp285
g4
F0.175
sg5
F0.21916666666666668
ssS'2,9'
p286
(dp287
g4
F0.16583333333333333
sg5
F0.21083333333333334
ssS'2,8'
p288
(dp289
g4
F0.16833333333333333
sg5
F0.21666666666666667
ssS'2,5'
p290
(dp291
g4
F0.17916666666666667
sg5
F0.20916666666666667
ssS'2,4'
p292
(dp293
g4
F0.1475
sg5
F0.2075
ssS'2,7'
p294
(dp295
g4
F0.13
sg5
F0.205
ssS'2,6'
p296
(dp297
g4
F0.14666666666666667
sg5
F0.23333333333333334
ssS'2,3'
p298
(dp299
g4
F0.1675
sg5
F0.22416666666666665
ssS'2,2'
p300
(dp301
g4
F0.34
sg5
g6
ssS'4,7'
p302
(dp303
g4
F0.165
sg5
F0.22666666666666666
ssS'4,6'
p304
(dp305
g4
F0.1775
sg5
F0.23083333333333333
ssS'4,5'
p306
(dp307
g4
F0.18666666666666668
sg5
F0.245
ssS'4,4'
p308
(dp309
g4
F0.365
sg5
g6
ssS'2,11'
p310
(dp311
g4
F0.15083333333333335
sg5
F0.225
ssS'2,10'
p312
(dp313
g4
F0.16166666666666665
sg5
F0.215
ssS'2,13'
p314
(dp315
g4
F0.15666666666666668
sg5
F0.25583333333333336
ssS'2,12'
p316
(dp317
g4
F0.17083333333333334
sg5
F0.2525
ssS'2,14'
p318
(dp319
g4
F0.18083333333333335
sg5
F0.2475
ssS'5,5'
p320
(dp321
g4
F0.33916666666666667
sg5
g6
ssS'8,13'
p322
(dp323
g4
F0.175
sg5
F0.26916666666666667
ssS'8,12'
p324
(dp325
g4
F0.1975
sg5
F0.26
ssS'8,11'
p326
(dp327
g4
F0.1925
sg5
F0.235
ssS'8,10'
p328
(dp329
g4
F0.21916666666666668
sg5
F0.2808333333333333
ssS'8,14'
p330
(dp331
g4
F0.2025
sg5
F0.26166666666666666
ssS'7,12'
p332
(dp333
g4
F0.18166666666666667
sg5
F0.23416666666666666
ssS'7,13'
p334
(dp335
g4
F0.1975
sg5
F0.26166666666666666
ssS'7,10'
p336
(dp337
g4
F0.20166666666666666
sg5
F0.2625
ssS'7,11'
p338
(dp339
g4
F0.19583333333333333
sg5
F0.27166666666666667
ssS'7,14'
p340
(dp341
g4
F0.21083333333333334
sg5
F0.25166666666666665
ssS'4,14'
p342
(dp343
g4
F0.18833333333333332
sg5
F0.2683333333333333
ssS'4,13'
p344
(dp345
g4
F0.16333333333333333
sg5
F0.22916666666666666
ssS'4,12'
p346
(dp347
g4
F0.16583333333333333
sg5
F0.2
ssS'4,11'
p348
(dp349
g4
F0.15166666666666667
sg5
F0.24416666666666667
ssS'4,10'
p350
(dp351
g4
F0.15666666666666668
sg5
F0.23083333333333333
ssS'7,8'
p352
(dp353
g4
F0.20083333333333334
sg5
F0.25666666666666665
ssS'7,9'
p354
(dp355
g4
F0.22416666666666665
sg5
F0.24916666666666668
ssS'9,9'
p356
(dp357
g4
F0.43
sg5
g6
ssS'5,12'
p358
(dp359
g4
F0.18666666666666668
sg5
F0.24666666666666667
ssS'9,10'
p360
(dp361
g4
F0.23666666666666666
sg5
F0.295
ssS'9,11'
p362
(dp363
g4
F0.21083333333333334
sg5
F0.27416666666666667
ssS'9,12'
p364
(dp365
g4
F0.195
sg5
F0.2758333333333333
ssS'9,13'
p366
(dp367
g4
F0.225
sg5
F0.275
ssS'9,14'
p368
(dp369
g4
F0.21833333333333332
sg5
F0.2941666666666667
sssI4
(dp370
S'7,7'
p371
(dp372
g4
F0.3358333333333333
sg5
g6
ssS'5,8'
p373
(dp374
g4
F0.14166666666666666
sg5
F0.19166666666666668
ssS'5,9'
p375
(dp376
g4
F0.12083333333333333
sg5
F0.1925
ssS'3,8'
p377
(dp378
g4
F0.12666666666666668
sg5
F0.18083333333333335
ssS'3,9'
p379
(dp380
g4
F0.1225
sg5
F0.17916666666666667
ssS'3,4'
p381
(dp382
g4
F0.13083333333333333
sg5
F0.19083333333333333
ssS'3,5'
p383
(dp384
g4
F0.16333333333333333
sg5
F0.1875
ssS'3,6'
p385
(dp386
g4
F0.14333333333333334
sg5
F0.18416666666666667
ssS'3,7'
p387
(dp388
g4
F0.14
sg5
F0.1625
ssS'5,6'
p389
(dp390
g4
F0.16166666666666665
sg5
F0.2025
ssS'5,7'
p391
(dp392
g4
F0.15833333333333333
sg5
F0.20166666666666666
ssS'3,3'
p393
(dp394
g4
F0.3333333333333333
sg5
g6
ssS'3,14'
p395
(dp396
g4
F0.13833333333333334
sg5
F0.20416666666666666
ssS'3,12'
p397
(dp398
g4
F0.105
sg5
F0.18583333333333332
ssS'3,13'
p399
(dp400
g4
F0.13083333333333333
sg5
F0.16666666666666666
ssS'3,10'
p401
(dp402
g4
F0.11833333333333333
sg5
F0.1775
ssS'3,11'
p403
(dp404
g4
F0.12916666666666668
sg5
F0.18583333333333332
ssS'5,14'
p405
(dp406
g4
F0.1375
sg5
F0.205
ssS'13,13'
p407
(dp408
g4
F0.40166666666666667
sg5
g6
ssS'5,10'
p409
(dp410
g4
F0.13833333333333334
sg5
F0.1875
ssS'5,11'
p411
(dp412
g4
F0.13333333333333333
sg5
F0.18
ssS'13,14'
p413
(dp414
g4
F0.21833333333333332
sg5
F0.2708333333333333
ssS'5,13'
p415
(dp416
g4
F0.12416666666666666
sg5
F0.21083333333333334
ssS'14,14'
p417
(dp418
g4
F0.43166666666666664
sg5
g6
ssS'11,11'
p419
(dp420
g4
F0.37333333333333335
sg5
g6
ssS'11,12'
p421
(dp422
g4
F0.21583333333333332
sg5
F0.25083333333333335
ssS'11,13'
p423
(dp424
g4
F0.20333333333333334
sg5
F0.26
ssS'11,14'
p425
(dp426
g4
F0.22666666666666666
sg5
F0.2633333333333333
ssS'10,14'
p427
(dp428
g4
F0.1825
sg5
F0.23416666666666666
ssS'10,13'
p429
(dp430
g4
F0.20416666666666666
sg5
F0.23416666666666666
ssS'10,12'
p431
(dp432
g4
F0.20416666666666666
sg5
F0.23333333333333334
ssS'10,11'
p433
(dp434
g4
F0.18333333333333332
sg5
F0.24916666666666668
ssS'10,10'
p435
(dp436
g4
F0.3525
sg5
g6
ssS'6,9'
p437
(dp438
g4
F0.1475
sg5
F0.20666666666666667
ssS'6,8'
p439
(dp440
g4
F0.16333333333333333
sg5
F0.21833333333333332
ssS'6,7'
p441
(dp442
g4
F0.15583333333333332
sg5
F0.21083333333333334
ssS'6,6'
p443
(dp444
g4
F0.3233333333333333
sg5
g6
ssS'6,14'
p445
(dp446
g4
F0.14916666666666667
sg5
F0.2175
ssS'6,11'
p447
(dp448
g4
F0.14583333333333334
sg5
F0.18833333333333332
ssS'6,10'
p449
(dp450
g4
F0.15
sg5
F0.19
ssS'6,13'
p451
(dp452
g4
F0.13916666666666666
sg5
F0.205
ssS'6,12'
p453
(dp454
g4
F0.15333333333333332
sg5
F0.1975
ssS'8,9'
p455
(dp456
g4
F0.15583333333333332
sg5
F0.225
ssS'8,8'
p457
(dp458
g4
F0.3466666666666667
sg5
g6
ssS'12,13'
p459
(dp460
g4
F0.21583333333333332
sg5
F0.25333333333333335
ssS'12,12'
p461
(dp462
g4
F0.3858333333333333
sg5
g6
ssS'12,14'
p463
(dp464
g4
F0.22833333333333333
sg5
F0.2866666666666667
ssS'4,9'
p465
(dp466
g4
F0.1175
sg5
F0.185
ssS'4,8'
p467
(dp468
g4
F0.13416666666666666
sg5
F0.16916666666666666
ssS'2,9'
p469
(dp470
g4
F0.1175
sg5
F0.16833333333333333
ssS'2,8'
p471
(dp472
g4
F0.11416666666666667
sg5
F0.17083333333333334
ssS'2,5'
p473
(dp474
g4
F0.11833333333333333
sg5
F0.175
ssS'2,4'
p475
(dp476
g4
F0.135
sg5
F0.19833333333333333
ssS'2,7'
p477
(dp478
g4
F0.11
sg5
F0.1725
ssS'2,6'
p479
(dp480
g4
F0.10583333333333333
sg5
F0.17333333333333334
ssS'2,3'
p481
(dp482
g4
F0.13083333333333333
sg5
F0.16416666666666666
ssS'2,2'
p483
(dp484
g4
F0.27
sg5
g6
ssS'4,7'
p485
(dp486
g4
F0.1275
sg5
F0.20916666666666667
ssS'4,6'
p487
(dp488
g4
F0.13916666666666666
sg5
F0.16916666666666666
ssS'4,5'
p489
(dp490
g4
F0.13583333333333333
sg5
F0.18916666666666668
ssS'4,4'
p491
(dp492
g4
F0.285
sg5
g6
ssS'2,11'
p493
(dp494
g4
F0.12083333333333333
sg5
F0.195
ssS'2,10'
p495
(dp496
g4
F0.11666666666666667
sg5
F0.1625
ssS'2,13'
p497
(dp498
g4
F0.12916666666666668
sg5
F0.1625
ssS'2,12'
p499
(dp500
g4
F0.1125
sg5
F0.1775
ssS'2,14'
p501
(dp502
g4
F0.13916666666666666
sg5
F0.18583333333333332
ssS'5,5'
p503
(dp504
g4
F0.30083333333333334
sg5
g6
ssS'8,13'
p505
(dp506
g4
F0.165
sg5
F0.19416666666666665
ssS'8,12'
p507
(dp508
g4
F0.16166666666666665
sg5
F0.22333333333333333
ssS'8,11'
p509
(dp510
g4
F0.16833333333333333
sg5
F0.2225
ssS'8,10'
p511
(dp512
g4
F0.17583333333333334
sg5
F0.2175
ssS'8,14'
p513
(dp514
g4
F0.15416666666666667
sg5
F0.22
ssS'7,12'
p515
(dp516
g4
F0.17166666666666666
sg5
F0.19583333333333333
ssS'7,13'
p517
(dp518
g4
F0.13666666666666666
sg5
F0.20083333333333334
ssS'7,10'
p519
(dp520
g4
F0.14416666666666667
sg5
F0.22166666666666668
ssS'7,11'
p521
(dp522
g4
F0.12833333333333333
sg5
F0.2125
ssS'7,14'
p523
(dp524
g4
F0.1575
sg5
F0.22833333333333333
ssS'4,14'
p525
(dp526
g4
F0.13833333333333334
sg5
F0.20833333333333334
ssS'4,13'
p527
(dp528
g4
F0.13166666666666665
sg5
F0.20666666666666667
ssS'4,12'
p529
(dp530
g4
F0.13
sg5
F0.1675
ssS'4,11'
p531
(dp532
g4
F0.1225
sg5
F0.185
ssS'4,10'
p533
(dp534
g4
F0.12833333333333333
sg5
F0.175
ssS'7,8'
p535
(dp536
g4
F0.165
sg5
F0.21333333333333335
ssS'7,9'
p537
(dp538
g4
F0.17666666666666667
sg5
F0.19833333333333333
ssS'9,9'
p539
(dp540
g4
F0.35333333333333333
sg5
g6
ssS'5,12'
p541
(dp542
g4
F0.155
sg5
F0.195
ssS'9,10'
p543
(dp544
g4
F0.16916666666666666
sg5
F0.23666666666666666
ssS'9,11'
p545
(dp546
g4
F0.15666666666666668
sg5
F0.22583333333333333
ssS'9,12'
p547
(dp548
g4
F0.17166666666666666
sg5
F0.23916666666666667
ssS'9,13'
p549
(dp550
g4
F0.14833333333333334
sg5
F0.23416666666666666
ssS'9,14'
p551
(dp552
g4
F0.15166666666666667
sg5
F0.23666666666666666
sssI5
(dp553
S'7,7'
p554
(dp555
g4
F0.285
sg5
g6
ssS'5,8'
p556
(dp557
g4
F0.11916666666666667
sg5
F0.17333333333333334
ssS'5,9'
p558
(dp559
g4
F0.1025
sg5
F0.15083333333333335
ssS'3,8'
p560
(dp561
g4
F0.08166666666666667
sg5
F0.1475
ssS'3,9'
p562
(dp563
g4
F0.10416666666666667
sg5
F0.13
ssS'3,4'
p564
(dp565
g4
F0.12166666666666667
sg5
F0.15583333333333332
ssS'3,5'
p566
(dp567
g4
F0.11833333333333333
sg5
F0.1625
ssS'3,6'
p568
(dp569
g4
F0.11166666666666666
sg5
F0.14083333333333334
ssS'3,7'
p570
(dp571
g4
F0.11916666666666667
sg5
F0.155
ssS'5,6'
p572
(dp573
g4
F0.13166666666666665
sg5
F0.1725
ssS'5,7'
p574
(dp575
g4
F0.11916666666666667
sg5
F0.16583333333333333
ssS'3,3'
p576
(dp577
g4
F0.2683333333333333
sg5
g6
ssS'3,14'
p578
(dp579
g4
F0.12916666666666668
sg5
F0.1925
ssS'3,12'
p580
(dp581
g4
F0.115
sg5
F0.16083333333333333
ssS'3,13'
p582
(dp583
g4
F0.095
sg5
F0.15666666666666668
ssS'3,10'
p584
(dp585
g4
F0.10583333333333333
sg5
F0.16166666666666665
ssS'3,11'
p586
(dp587
g4
F0.09583333333333334
sg5
F0.1475
ssS'5,14'
p588
(dp589
g4
F0.135
sg5
F0.18916666666666668
ssS'13,13'
p590
(dp591
g4
F0.3575
sg5
g6
ssS'5,10'
p592
(dp593
g4
F0.09083333333333334
sg5
F0.165
ssS'5,11'
p594
(dp595
g4
F0.10666666666666667
sg5
F0.1575
ssS'13,14'
p596
(dp597
g4
F0.18
sg5
F0.21
ssS'5,13'
p598
(dp599
g4
F0.10416666666666667
sg5
F0.16333333333333333
ssS'14,14'
p600
(dp601
g4
F0.3858333333333333
sg5
g6
ssS'11,11'
p602
(dp603
g4
F0.33166666666666667
sg5
g6
ssS'11,12'
p604
(dp605
g4
F0.16916666666666666
sg5
F0.21416666666666667
ssS'11,13'
p606
(dp607
g4
F0.15916666666666668
sg5
F0.22083333333333333
ssS'11,14'
p608
(dp609
g4
F0.15583333333333332
sg5
F0.22666666666666666
ssS'10,14'
p610
(dp611
g4
F0.15916666666666668
sg5
F0.21
ssS'10,13'
p612
(dp613
g4
F0.14666666666666667
sg5
F0.2125
ssS'10,12'
p614
(dp615
g4
F0.17583333333333334
sg5
F0.2225
ssS'10,11'
p616
(dp617
g4
F0.165
sg5
F0.205
ssS'10,10'
p618
(dp619
g4
F0.2966666666666667
sg5
g6
ssS'6,9'
p620
(dp621
g4
F0.11416666666666667
sg5
F0.17666666666666667
ssS'6,8'
p622
(dp623
g4
F0.11833333333333333
sg5
F0.20166666666666666
ssS'6,7'
p624
(dp625
g4
F0.13916666666666666
sg5
F0.18666666666666668
ssS'6,6'
p626
(dp627
g4
F0.2825
sg5
g6
ssS'6,14'
p628
(dp629
g4
F0.12916666666666668
sg5
F0.175
ssS'6,11'
p630
(dp631
g4
F0.10416666666666667
sg5
F0.16416666666666666
ssS'6,10'
p632
(dp633
g4
F0.1175
sg5
F0.17083333333333334
ssS'6,13'
p634
(dp635
g4
F0.11166666666666666
sg5
F0.155
ssS'6,12'
p636
(dp637
g4
F0.10083333333333333
sg5
F0.16666666666666666
ssS'8,9'
p638
(dp639
g4
F0.14166666666666666
sg5
F0.20333333333333334
ssS'8,8'
p640
(dp641
g4
F0.29083333333333333
sg5
g6
ssS'12,13'
p642
(dp643
g4
F0.1875
sg5
F0.22416666666666665
ssS'12,12'
p644
(dp645
g4
F0.3575
sg5
g6
ssS'12,14'
p646
(dp647
g4
F0.1675
sg5
F0.22083333333333333
ssS'4,9'
p648
(dp649
g4
F0.09833333333333333
sg5
F0.15166666666666667
ssS'4,8'
p650
(dp651
g4
F0.10083333333333333
sg5
F0.15833333333333333
ssS'2,9'
p652
(dp653
g4
F0.085
sg5
F0.14916666666666667
ssS'2,8'
p654
(dp655
g4
F0.0925
sg5
F0.14416666666666667
ssS'2,5'
p656
(dp657
g4
F0.12
sg5
F0.16083333333333333
ssS'2,4'
p658
(dp659
g4
F0.10416666666666667
sg5
F0.14833333333333334
ssS'2,7'
p660
(dp661
g4
F0.1
sg5
F0.14666666666666667
ssS'2,6'
p662
(dp663
g4
F0.10333333333333333
sg5
F0.15166666666666667
ssS'2,3'
p664
(dp665
g4
F0.09666666666666666
sg5
F0.13583333333333333
ssS'2,2'
p666
(dp667
g4
F0.27166666666666667
sg5
g6
ssS'4,7'
p668
(dp669
g4
F0.105
sg5
F0.17583333333333334
ssS'4,6'
p670
(dp671
g4
F0.10583333333333333
sg5
F0.1575
ssS'4,5'
p672
(dp673
g4
F0.13916666666666666
sg5
F0.16416666666666666
ssS'4,4'
p674
(dp675
g4
F0.2525
sg5
g6
ssS'2,11'
p676
(dp677
g4
F0.10916666666666666
sg5
F0.14333333333333334
ssS'2,10'
p678
(dp679
g4
F0.105
sg5
F0.14083333333333334
ssS'2,13'
p680
(dp681
g4
F0.10333333333333333
sg5
F0.15083333333333335
ssS'2,12'
p682
(dp683
g4
F0.1025
sg5
F0.15083333333333335
ssS'2,14'
p684
(dp685
g4
F0.10333333333333333
sg5
F0.15333333333333332
ssS'5,5'
p686
(dp687
g4
F0.2925
sg5
g6
ssS'8,13'
p688
(dp689
g4
F0.11416666666666667
sg5
F0.20666666666666667
ssS'8,12'
p690
(dp691
g4
F0.14416666666666667
sg5
F0.19083333333333333
ssS'8,11'
p692
(dp693
g4
F0.15
sg5
F0.20333333333333334
ssS'8,10'
p694
(dp695
g4
F0.13583333333333333
sg5
F0.1925
ssS'8,14'
p696
(dp697
g4
F0.13
sg5
F0.18583333333333332
ssS'7,12'
p698
(dp699
g4
F0.1175
sg5
F0.17666666666666667
ssS'7,13'
p700
(dp701
g4
F0.12083333333333333
sg5
F0.1875
ssS'7,10'
p702
(dp703
g4
F0.125
sg5
F0.20166666666666666
ssS'7,11'
p704
(dp705
g4
F0.11083333333333334
sg5
F0.18333333333333332
ssS'7,14'
p706
(dp707
g4
F0.1175
sg5
F0.18916666666666668
ssS'4,14'
p708
(dp709
g4
F0.12
sg5
F0.18833333333333332
ssS'4,13'
p710
(dp711
g4
F0.09666666666666666
sg5
F0.17
ssS'4,12'
p712
(dp713
g4
F0.0975
sg5
F0.1525
ssS'4,11'
p714
(dp715
g4
F0.09166666666666666
sg5
F0.16166666666666665
ssS'4,10'
p716
(dp717
g4
F0.0975
sg5
F0.14416666666666667
ssS'7,8'
p718
(dp719
g4
F0.14
sg5
F0.18
ssS'7,9'
p720
(dp721
g4
F0.13083333333333333
sg5
F0.1775
ssS'9,9'
p722
(dp723
g4
F0.3125
sg5
g6
ssS'5,12'
p724
(dp725
g4
F0.11333333333333333
sg5
F0.175
ssS'9,10'
p726
(dp727
g4
F0.165
sg5
F0.18416666666666667
ssS'9,11'
p728
(dp729
g4
F0.12583333333333332
sg5
F0.17416666666666666
ssS'9,12'
p730
(dp731
g4
F0.13166666666666665
sg5
F0.20166666666666666
ssS'9,13'
p732
(dp733
g4
F0.1525
sg5
F0.19083333333333333
ssS'9,14'
p734
(dp735
g4
F0.1225
sg5
F0.19333333333333333
sssI6
(dp736
S'7,7'
p737
(dp738
g4
F0.2725
sg5
g6
ssS'5,8'
p739
(dp740
g4
F0.07416666666666667
sg5
F0.13916666666666666
ssS'5,9'
p741
(dp742
g4
F0.07833333333333334
sg5
F0.12083333333333333
ssS'3,8'
p743
(dp744
g4
F0.07083333333333333
sg5
F0.12
ssS'3,9'
p745
(dp746
g4
F0.09166666666666666
sg5
F0.12333333333333334
ssS'3,4'
p747
(dp748
g4
F0.09666666666666666
sg5
F0.14
ssS'3,5'
p749
(dp750
g4
F0.09916666666666667
sg5
F0.15833333333333333
ssS'3,6'
p751
(dp752
g4
F0.08333333333333333
sg5
F0.16
ssS'3,7'
p753
(dp754
g4
F0.0875
sg5
F0.14083333333333334
ssS'5,6'
p755
(dp756
g4
F0.125
sg5
F0.15916666666666668
ssS'5,7'
p757
(dp758
g4
F0.11083333333333334
sg5
F0.14083333333333334
ssS'3,3'
p759
(dp760
g4
F0.255
sg5
g6
ssS'3,14'
p761
(dp762
g4
F0.08916666666666667
sg5
F0.16833333333333333
ssS'3,12'
p763
(dp764
g4
F0.085
sg5
F0.1575
ssS'3,13'
p765
(dp766
g4
F0.08333333333333333
sg5
F0.14416666666666667
ssS'3,10'
p767
(dp768
g4
F0.085
sg5
F0.12833333333333333
ssS'3,11'
p769
(dp770
g4
F0.08333333333333333
sg5
F0.13416666666666666
ssS'5,14'
p771
(dp772
g4
F0.10416666666666667
sg5
F0.18
ssS'13,13'
p773
(dp774
g4
F0.3175
sg5
g6
ssS'5,10'
p775
(dp776
g4
F0.08333333333333333
sg5
F0.13666666666666666
ssS'5,11'
p777
(dp778
g4
F0.09416666666666666
sg5
F0.1625
ssS'13,14'
p779
(dp780
g4
F0.1575
sg5
F0.21166666666666667
ssS'5,13'
p781
(dp782
g4
F0.09833333333333333
sg5
F0.1475
ssS'14,14'
p783
(dp784
g4
F0.36083333333333334
sg5
g6
ssS'11,11'
p785
(dp786
g4
F0.2866666666666667
sg5
g6
ssS'11,12'
p787
(dp788
g4
F0.12416666666666666
sg5
F0.1975
ssS'11,13'
p789
(dp790
g4
F0.12916666666666668
sg5
F0.2025
ssS'11,14'
p791
(dp792
g4
F0.135
sg5
F0.18666666666666668
ssS'10,14'
p793
(dp794
g4
F0.105
sg5
F0.2125
ssS'10,13'
p795
(dp796
g4
F0.1275
sg5
F0.19
ssS'10,12'
p797
(dp798
g4
F0.12083333333333333
sg5
F0.19166666666666668
ssS'10,11'
p799
(dp800
g4
F0.1475
sg5
F0.20583333333333334
ssS'10,10'
p801
(dp802
g4
F0.275
sg5
g6
ssS'6,9'
p803
(dp804
g4
F0.10166666666666667
sg5
F0.16083333333333333
ssS'6,8'
p805
(dp806
g4
F0.1
sg5
F0.1625
ssS'6,7'
p807
(dp808
g4
F0.0925
sg5
F0.17333333333333334
ssS'6,6'
p809
(dp810
g4
F0.2575
sg5
g6
ssS'6,14'
p811
(dp812
g4
F0.10833333333333334
sg5
F0.15416666666666667
ssS'6,11'
p813
(dp814
g4
F0.0925
sg5
F0.16083333333333333
ssS'6,10'
p815
(dp816
g4
F0.1
sg5
F0.14
ssS'6,13'
p817
(dp818
g4
F0.095
sg5
F0.1575
ssS'6,12'
p819
(dp820
g4
F0.09
sg5
F0.1425
ssS'8,9'
p821
(dp822
g4
F0.11416666666666667
sg5
F0.1575
ssS'8,8'
p823
(dp824
g4
F0.2783333333333333
sg5
g6
ssS'12,13'
p825
(dp826
g4
F0.12583333333333332
sg5
F0.1925
ssS'12,12'
p827
(dp828
g4
F0.31333333333333335
sg5
g6
ssS'12,14'
p829
(dp830
g4
F0.14333333333333334
sg5
F0.20583333333333334
ssS'4,9'
p831
(dp832
g4
F0.09166666666666666
sg5
F0.155
ssS'4,8'
p833
(dp834
g4
F0.0875
sg5
F0.12833333333333333
ssS'2,9'
p835
(dp836
g4
F0.06416666666666666
sg5
F0.1325
ssS'2,8'
p837
(dp838
g4
F0.07333333333333333
sg5
F0.125
ssS'2,5'
p839
(dp840
g4
F0.09
sg5
F0.13083333333333333
ssS'2,4'
p841
(dp842
g4
F0.07666666666666666
sg5
F0.12916666666666668
ssS'2,7'
p843
(dp844
g4
F0.0775
sg5
F0.13333333333333333
ssS'2,6'
p845
(dp846
g4
F0.07083333333333333
sg5
F0.13083333333333333
ssS'2,3'
p847
(dp848
g4
F0.0875
sg5
F0.14
ssS'2,2'
p849
(dp850
g4
F0.24166666666666667
sg5
g6
ssS'4,7'
p851
(dp852
g4
F0.0875
sg5
F0.13333333333333333
ssS'4,6'
p853
(dp854
g4
F0.11
sg5
F0.14
ssS'4,5'
p855
(dp856
g4
F0.11083333333333334
sg5
F0.155
ssS'4,4'
p857
(dp858
g4
F0.25166666666666665
sg5
g6
ssS'2,11'
p859
(dp860
g4
F0.0775
sg5
F0.12166666666666667
ssS'2,10'
p861
(dp862
g4
F0.085
sg5
F0.1425
ssS'2,13'
p863
(dp864
g4
F0.09583333333333334
sg5
F0.13333333333333333
ssS'2,12'
p865
(dp866
g4
F0.06833333333333333
sg5
F0.1325
ssS'2,14'
p867
(dp868
g4
F0.0875
sg5
F0.14583333333333334
ssS'5,5'
p869
(dp870
g4
F0.2475
sg5
g6
ssS'8,13'
p871
(dp872
g4
F0.0875
sg5
F0.16083333333333333
ssS'8,12'
p873
(dp874
g4
F0.10583333333333333
sg5
F0.16666666666666666
ssS'8,11'
p875
(dp876
g4
F0.11666666666666667
sg5
F0.17666666666666667
ssS'8,10'
p877
(dp878
g4
F0.12416666666666666
sg5
F0.16166666666666665
ssS'8,14'
p879
(dp880
g4
F0.11083333333333334
sg5
F0.15416666666666667
ssS'7,12'
p881
(dp882
g4
F0.10833333333333334
sg5
F0.1475
ssS'7,13'
p883
(dp884
g4
F0.11166666666666666
sg5
F0.15166666666666667
ssS'7,10'
p885
(dp886
g4
F0.09333333333333334
sg5
F0.16666666666666666
ssS'7,11'
p887
(dp888
g4
F0.09916666666666667
sg5
F0.15583333333333332
ssS'7,14'
p889
(dp890
g4
F0.095
sg5
F0.18583333333333332
ssS'4,14'
p891
(dp892
g4
F0.0925
sg5
F0.15583333333333332
ssS'4,13'
p893
(dp894
g4
F0.0875
sg5
F0.15083333333333335
ssS'4,12'
p895
(dp896
g4
F0.09
sg5
F0.15583333333333332
ssS'4,11'
p897
(dp898
g4
F0.0875
sg5
F0.145
ssS'4,10'
p899
(dp900
g4
F0.06666666666666667
sg5
F0.1625
ssS'7,8'
p901
(dp902
g4
F0.11416666666666667
sg5
F0.1775
ssS'7,9'
p903
(dp904
g4
F0.1075
sg5
F0.1675
ssS'9,9'
p905
(dp906
g4
F0.2675
sg5
g6
ssS'5,12'
p907
(dp908
g4
F0.07833333333333334
sg5
F0.14416666666666667
ssS'9,10'
p909
(dp910
g4
F0.12333333333333334
sg5
F0.165
ssS'9,11'
p911
(dp912
g4
F0.105
sg5
F0.14583333333333334
ssS'9,12'
p913
(dp914
g4
F0.1075
sg5
F0.16416666666666666
ssS'9,13'
p915
(dp916
g4
F0.11
sg5
F0.1775
ssS'9,14'
p917
(dp918
g4
F0.11166666666666666
sg5
F0.175
sssI7
(dp919
S'7,7'
p920
(dp921
g4
F0.24583333333333332
sg5
g6
ssS'5,8'
p922
(dp923
g4
F0.08333333333333333
sg5
F0.13916666666666666
ssS'5,9'
p924
(dp925
g4
F0.07
sg5
F0.11083333333333334
ssS'3,8'
p926
(dp927
g4
F0.07083333333333333
sg5
F0.11083333333333334
ssS'3,9'
p928
(dp929
g4
F0.08666666666666667
sg5
F0.13083333333333333
ssS'3,4'
p930
(dp931
g4
F0.07833333333333334
sg5
F0.13916666666666666
ssS'3,5'
p932
(dp933
g4
F0.0875
sg5
F0.1275
ssS'3,6'
p934
(dp935
g4
F0.07083333333333333
sg5
F0.13
ssS'3,7'
p936
(dp937
g4
F0.075
sg5
F0.12833333333333333
ssS'5,6'
p938
(dp939
g4
F0.09166666666666666
sg5
F0.1575
ssS'5,7'
p940
(dp941
g4
F0.085
sg5
F0.13666666666666666
ssS'3,3'
p942
(dp943
g4
F0.2525
sg5
g6
ssS'3,14'
p944
(dp945
g4
F0.07916666666666666
sg5
F0.16333333333333333
ssS'3,12'
p946
(dp947
g4
F0.08
sg5
F0.11333333333333333
ssS'3,13'
p948
(dp949
g4
F0.09
sg5
F0.135
ssS'3,10'
p950
(dp951
g4
F0.08333333333333333
sg5
F0.12583333333333332
ssS'3,11'
p952
(dp953
g4
F0.08666666666666667
sg5
F0.12916666666666668
ssS'5,14'
p954
(dp955
g4
F0.075
sg5
F0.14916666666666667
ssS'13,13'
p956
(dp957
g4
F0.2916666666666667
sg5
g6
ssS'5,10'
p958
(dp959
g4
F0.049166666666666664
sg5
F0.12916666666666668
ssS'5,11'
p960
(dp961
g4
F0.07166666666666667
sg5
F0.135
ssS'13,14'
p962
(dp963
g4
F0.1275
sg5
F0.18666666666666668
ssS'5,13'
p964
(dp965
g4
F0.08333333333333333
sg5
F0.1475
ssS'14,14'
p966
(dp967
g4
F0.32166666666666666
sg5
g6
ssS'11,11'
p968
(dp969
g4
F0.2425
sg5
g6
ssS'11,12'
p970
(dp971
g4
F0.1175
sg5
F0.1825
ssS'11,13'
p972
(dp973
g4
F0.12416666666666666
sg5
F0.18166666666666667
ssS'11,14'
p974
(dp975
g4
F0.11833333333333333
sg5
F0.19916666666666666
ssS'10,14'
p976
(dp977
g4
F0.10333333333333333
sg5
F0.16916666666666666
ssS'10,13'
p978
(dp979
g4
F0.12083333333333333
sg5
F0.18083333333333335
ssS'10,12'
p980
(dp981
g4
F0.1125
sg5
F0.16583333333333333
ssS'10,11'
p982
(dp983
g4
F0.12916666666666668
sg5
F0.16916666666666666
ssS'10,10'
p984
(dp985
g4
F0.2625
sg5
g6
ssS'6,9'
p986
(dp987
g4
F0.08916666666666667
sg5
F0.13166666666666665
ssS'6,8'
p988
(dp989
g4
F0.0825
sg5
F0.14333333333333334
ssS'6,7'
p990
(dp991
g4
F0.09583333333333334
sg5
F0.135
ssS'6,6'
p992
(dp993
g4
F0.22666666666666666
sg5
g6
ssS'6,14'
p994
(dp995
g4
F0.075
sg5
F0.1375
ssS'6,11'
p996
(dp997
g4
F0.0675
sg5
F0.1275
ssS'6,10'
p998
(dp999
g4
F0.07
sg5
F0.14333333333333334
ssS'6,13'
p1000
(dp1001
g4
F0.08416666666666667
sg5
F0.13833333333333334
ssS'6,12'
p1002
(dp1003
g4
F0.0775
sg5
F0.14416666666666667
ssS'8,9'
p1004
(dp1005
g4
F0.10916666666666666
sg5
F0.14833333333333334
ssS'8,8'
p1006
(dp1007
g4
F0.2325
sg5
g6
ssS'12,13'
p1008
(dp1009
g4
F0.105
sg5
F0.17833333333333334
ssS'12,12'
p1010
(dp1011
g4
F0.265
sg5
g6
ssS'12,14'
p1012
(dp1013
g4
F0.12333333333333334
sg5
F0.19916666666666666
ssS'4,9'
p1014
(dp1015
g4
F0.06916666666666667
sg5
F0.115
ssS'4,8'
p1016
(dp1017
g4
F0.06416666666666666
sg5
F0.12333333333333334
ssS'2,9'
p1018
(dp1019
g4
F0.065
sg5
F0.1225
ssS'2,8'
p1020
(dp1021
g4
F0.07416666666666667
sg5
F0.12083333333333333
ssS'2,5'
p1022
(dp1023
g4
F0.075
sg5
F0.12416666666666666
ssS'2,4'
p1024
(dp1025
g4
F0.07083333333333333
sg5
F0.12666666666666668
ssS'2,7'
p1026
(dp1027
g4
F0.06333333333333334
sg5
F0.0925
ssS'2,6'
p1028
(dp1029
g4
F0.06666666666666667
sg5
F0.1175
ssS'2,3'
p1030
(dp1031
g4
F0.060833333333333336
sg5
F0.1175
ssS'2,2'
p1032
(dp1033
g4
F0.22916666666666666
sg5
g6
ssS'4,7'
p1034
(dp1035
g4
F0.07416666666666667
sg5
F0.11583333333333333
ssS'4,6'
p1036
(dp1037
g4
F0.10166666666666667
sg5
F0.1475
ssS'4,5'
p1038
(dp1039
g4
F0.07666666666666666
sg5
F0.13833333333333334
ssS'4,4'
p1040
(dp1041
g4
F0.22
sg5
g6
ssS'2,11'
p1042
(dp1043
g4
F0.07416666666666667
sg5
F0.12666666666666668
ssS'2,10'
p1044
(dp1045
g4
F0.07
sg5
F0.11333333333333333
ssS'2,13'
p1046
(dp1047
g4
F0.07166666666666667
sg5
F0.11833333333333333
ssS'2,12'
p1048
(dp1049
g4
F0.06666666666666667
sg5
F0.13333333333333333
ssS'2,14'
p1050
(dp1051
g4
F0.09083333333333334
sg5
F0.14166666666666666
ssS'5,5'
p1052
(dp1053
g4
F0.20416666666666666
sg5
g6
ssS'8,13'
p1054
(dp1055
g4
F0.08833333333333333
sg5
F0.16833333333333333
ssS'8,12'
p1056
(dp1057
g4
F0.07833333333333334
sg5
F0.15416666666666667
ssS'8,11'
p1058
(dp1059
g4
F0.09416666666666666
sg5
F0.145
ssS'8,10'
p1060
(dp1061
g4
F0.11916666666666667
sg5
F0.1575
ssS'8,14'
p1062
(dp1063
g4
F0.0875
sg5
F0.13833333333333334
ssS'7,12'
p1064
(dp1065
g4
F0.085
sg5
F0.13666666666666666
ssS'7,13'
p1066
(dp1067
g4
F0.08833333333333333
sg5
F0.15833333333333333
ssS'7,10'
p1068
(dp1069
g4
F0.0875
sg5
F0.1525
ssS'7,11'
p1070
(dp1071
g4
F0.09
sg5
F0.12333333333333334
ssS'7,14'
p1072
(dp1073
g4
F0.095
sg5
F0.15666666666666668
ssS'4,14'
p1074
(dp1075
g4
F0.08666666666666667
sg5
F0.14166666666666666
ssS'4,13'
p1076
(dp1077
g4
F0.08416666666666667
sg5
F0.125
ssS'4,12'
p1078
(dp1079
g4
F0.06916666666666667
sg5
F0.13416666666666666
ssS'4,11'
p1080
(dp1081
g4
F0.07
sg5
F0.12
ssS'4,10'
p1082
(dp1083
g4
F0.075
sg5
F0.0975
ssS'7,8'
p1084
(dp1085
g4
F0.10583333333333333
sg5
F0.1525
ssS'7,9'
p1086
(dp1087
g4
F0.08833333333333333
sg5
F0.14833333333333334
ssS'9,9'
p1088
(dp1089
g4
F0.2575
sg5
g6
ssS'5,12'
p1090
(dp1091
g4
F0.058333333333333334
sg5
F0.13083333333333333
ssS'9,10'
p1092
(dp1093
g4
F0.10666666666666667
sg5
F0.17416666666666666
ssS'9,11'
p1094
(dp1095
g4
F0.09416666666666666
sg5
F0.1525
ssS'9,12'
p1096
(dp1097
g4
F0.10833333333333334
sg5
F0.1775
ssS'9,13'
p1098
(dp1099
g4
F0.09333333333333334
sg5
F0.1675
ssS'9,14'
p1100
(dp1101
g4
F0.0925
sg5
F0.15583333333333332
sssI8
(dp1102
S'7,7'
p1103
(dp1104
g4
F0.20833333333333334
sg5
g6
ssS'5,8'
p1105
(dp1106
g4
F0.06416666666666666
sg5
F0.11666666666666667
ssS'5,9'
p1107
(dp1108
g4
F0.055
sg5
F0.1225
ssS'3,8'
p1109
(dp1110
g4
F0.0625
sg5
F0.11166666666666666
ssS'3,9'
p1111
(dp1112
g4
F0.0575
sg5
F0.11416666666666667
ssS'3,4'
p1113
(dp1114
g4
F0.06416666666666666
sg5
F0.11833333333333333
ssS'3,5'
p1115
(dp1116
g4
F0.0675
sg5
F0.13083333333333333
ssS'3,6'
p1117
(dp1118
g4
F0.0675
sg5
F0.12333333333333334
ssS'3,7'
p1119
(dp1120
g4
F0.0675
sg5
F0.11333333333333333
ssS'5,6'
p1121
(dp1122
g4
F0.08083333333333333
sg5
F0.14083333333333334
ssS'5,7'
p1123
(dp1124
g4
F0.08916666666666667
sg5
F0.13083333333333333
ssS'3,3'
p1125
(dp1126
g4
F0.21333333333333335
sg5
g6
ssS'3,14'
p1127
(dp1128
g4
F0.06666666666666667
sg5
F0.10833333333333334
ssS'3,12'
p1129
(dp1130
g4
F0.055
sg5
F0.12416666666666666
ssS'3,13'
p1131
(dp1132
g4
F0.06166666666666667
sg5
F0.11
ssS'3,10'
p1133
(dp1134
g4
F0.06
sg5
F0.11
ssS'3,11'
p1135
(dp1136
g4
F0.058333333333333334
sg5
F0.12166666666666667
ssS'5,14'
p1137
(dp1138
g4
F0.07416666666666667
sg5
F0.13583333333333333
ssS'13,13'
p1139
(dp1140
g4
F0.2916666666666667
sg5
g6
ssS'5,10'
p1141
(dp1142
g4
F0.059166666666666666
sg5
F0.11
ssS'5,11'
p1143
(dp1144
g4
F0.065
sg5
F0.12583333333333332
ssS'13,14'
p1145
(dp1146
g4
F0.11
sg5
F0.18333333333333332
ssS'5,13'
p1147
(dp1148
g4
F0.06833333333333333
sg5
F0.12416666666666666
ssS'14,14'
p1149
(dp1150
g4
F0.30666666666666664
sg5
g6
ssS'11,11'
p1151
(dp1152
g4
F0.23083333333333333
sg5
g6
ssS'11,12'
p1153
(dp1154
g4
F0.11666666666666667
sg5
F0.16083333333333333
ssS'11,13'
p1155
(dp1156
g4
F0.1075
sg5
F0.16333333333333333
ssS'11,14'
p1157
(dp1158
g4
F0.1
sg5
F0.17333333333333334
ssS'10,14'
p1159
(dp1160
g4
F0.10333333333333333
sg5
F0.15583333333333332
ssS'10,13'
p1161
(dp1162
g4
F0.09166666666666666
sg5
F0.15333333333333332
ssS'10,12'
p1163
(dp1164
g4
F0.09916666666666667
sg5
F0.14916666666666667
ssS'10,11'
p1165
(dp1166
g4
F0.11333333333333333
sg5
F0.18
ssS'10,10'
p1167
(dp1168
g4
F0.2275
sg5
g6
ssS'6,9'
p1169
(dp1170
g4
F0.07583333333333334
sg5
F0.1225
ssS'6,8'
p1171
(dp1172
g4
F0.07583333333333334
sg5
F0.12416666666666666
ssS'6,7'
p1173
(dp1174
g4
F0.075
sg5
F0.1125
ssS'6,6'
p1175
(dp1176
g4
F0.22
sg5
g6
ssS'6,14'
p1177
(dp1178
g4
F0.07
sg5
F0.14
ssS'6,11'
p1179
(dp1180
g4
F0.06333333333333334
sg5
F0.13166666666666665
ssS'6,10'
p1181
(dp1182
g4
F0.085
sg5
F0.11
ssS'6,13'
p1183
(dp1184
g4
F0.0675
sg5
F0.13416666666666666
ssS'6,12'
p1185
(dp1186
g4
F0.06916666666666667
sg5
F0.12916666666666668
ssS'8,9'
p1187
(dp1188
g4
F0.09833333333333333
sg5
F0.1425
ssS'8,8'
p1189
(dp1190
g4
F0.25666666666666665
sg5
g6
ssS'12,13'
p1191
(dp1192
g4
F0.09666666666666666
sg5
F0.18833333333333332
ssS'12,12'
p1193
(dp1194
g4
F0.25083333333333335
sg5
g6
ssS'12,14'
p1195
(dp1196
g4
F0.11416666666666667
sg5
F0.1675
ssS'4,9'
p1197
(dp1198
g4
F0.06333333333333334
sg5
F0.10166666666666667
ssS'4,8'
p1199
(dp1200
g4
F0.05416666666666667
sg5
F0.1225
ssS'2,9'
p1201
(dp1202
g4
F0.060833333333333336
sg5
F0.09583333333333334
ssS'2,8'
p1203
(dp1204
g4
F0.0525
sg5
F0.09916666666666667
ssS'2,5'
p1205
(dp1206
g4
F0.055
sg5
F0.10416666666666667
ssS'2,4'
p1207
(dp1208
g4
F0.075
sg5
F0.09833333333333333
ssS'2,7'
p1209
(dp1210
g4
F0.05416666666666667
sg5
F0.0925
ssS'2,6'
p1211
(dp1212
g4
F0.050833333333333335
sg5
F0.1
ssS'2,3'
p1213
(dp1214
g4
F0.050833333333333335
sg5
F0.125
ssS'2,2'
p1215
(dp1216
g4
F0.2075
sg5
g6
ssS'4,7'
p1217
(dp1218
g4
F0.0875
sg5
F0.13083333333333333
ssS'4,6'
p1219
(dp1220
g4
F0.06666666666666667
sg5
F0.12583333333333332
ssS'4,5'
p1221
(dp1222
g4
F0.0775
sg5
F0.125
ssS'4,4'
p1223
(dp1224
g4
F0.23083333333333333
sg5
g6
ssS'2,11'
p1225
(dp1226
g4
F0.06166666666666667
sg5
F0.10666666666666667
ssS'2,10'
p1227
(dp1228
g4
F0.0675
sg5
F0.10583333333333333
ssS'2,13'
p1229
(dp1230
g4
F0.06166666666666667
sg5
F0.11
ssS'2,12'
p1231
(dp1232
g4
F0.06166666666666667
sg5
F0.10583333333333333
ssS'2,14'
p1233
(dp1234
g4
F0.06833333333333333
sg5
F0.125
ssS'5,5'
p1235
(dp1236
g4
F0.20666666666666667
sg5
g6
ssS'8,13'
p1237
(dp1238
g4
F0.0725
sg5
F0.14666666666666667
ssS'8,12'
p1239
(dp1240
g4
F0.08083333333333333
sg5
F0.135
ssS'8,11'
p1241
(dp1242
g4
F0.08416666666666667
sg5
F0.13833333333333334
ssS'8,10'
p1243
(dp1244
g4
F0.08666666666666667
sg5
F0.1525
ssS'8,14'
p1245
(dp1246
g4
F0.0775
sg5
F0.13916666666666666
ssS'7,12'
p1247
(dp1248
g4
F0.07833333333333334
sg5
F0.1275
ssS'7,13'
p1249
(dp1250
g4
F0.06916666666666667
sg5
F0.13916666666666666
ssS'7,10'
p1251
(dp1252
g4
F0.08083333333333333
sg5
F0.12666666666666668
ssS'7,11'
p1253
(dp1254
g4
F0.08083333333333333
sg5
F0.13083333333333333
ssS'7,14'
p1255
(dp1256
g4
F0.08083333333333333
sg5
F0.14333333333333334
ssS'4,14'
p1257
(dp1258
g4
F0.07416666666666667
sg5
F0.14333333333333334
ssS'4,13'
p1259
(dp1260
g4
F0.0725
sg5
F0.13833333333333334
ssS'4,12'
p1261
(dp1262
g4
F0.065
sg5
F0.12333333333333334
ssS'4,11'
p1263
(dp1264
g4
F0.065
sg5
F0.11416666666666667
ssS'4,10'
p1265
(dp1266
g4
F0.0625
sg5
F0.12083333333333333
ssS'7,8'
p1267
(dp1268
g4
F0.09583333333333334
sg5
F0.12833333333333333
ssS'7,9'
p1269
(dp1270
g4
F0.07666666666666666
sg5
F0.12916666666666668
ssS'9,9'
p1271
(dp1272
g4
F0.2325
sg5
g6
ssS'5,12'
p1273
(dp1274
g4
F0.0675
sg5
F0.13583333333333333
ssS'9,10'
p1275
(dp1276
g4
F0.085
sg5
F0.14083333333333334
ssS'9,11'
p1277
(dp1278
g4
F0.09166666666666666
sg5
F0.16
ssS'9,12'
p1279
(dp1280
g4
F0.08083333333333333
sg5
F0.12833333333333333
ssS'9,13'
p1281
(dp1282
g4
F0.08916666666666667
sg5
F0.15083333333333335
ssS'9,14'
p1283
(dp1284
g4
F0.10583333333333333
sg5
F0.15333333333333332
sssI9
(dp1285
S'7,7'
p1286
(dp1287
g4
F0.19333333333333333
sg5
g6
ssS'5,8'
p1288
(dp1289
g4
F0.06166666666666667
sg5
F0.115
ssS'5,9'
p1290
(dp1291
g4
F0.05416666666666667
sg5
F0.10166666666666667
ssS'3,8'
p1292
(dp1293
g4
F0.0425
sg5
F0.08666666666666667
ssS'3,9'
p1294
(dp1295
g4
F0.05416666666666667
sg5
F0.11083333333333334
ssS'3,4'
p1296
(dp1297
g4
F0.07
sg5
F0.11416666666666667
ssS'3,5'
p1298
(dp1299
g4
F0.059166666666666666
sg5
F0.11083333333333334
ssS'3,6'
p1300
(dp1301
g4
F0.06333333333333334
sg5
F0.1125
ssS'3,7'
p1302
(dp1303
g4
F0.05583333333333333
sg5
F0.0925
ssS'5,6'
p1304
(dp1305
g4
F0.0775
sg5
F0.12166666666666667
ssS'5,7'
p1306
(dp1307
g4
F0.06166666666666667
sg5
F0.11083333333333334
ssS'3,3'
p1308
(dp1309
g4
F0.21333333333333335
sg5
g6
ssS'3,14'
p1310
(dp1311
g4
F0.059166666666666666
sg5
F0.10833333333333334
ssS'3,12'
p1312
(dp1313
g4
F0.05333333333333334
sg5
F0.11083333333333334
ssS'3,13'
p1314
(dp1315
g4
F0.065
sg5
F0.1
ssS'3,10'
p1316
(dp1317
g4
F0.0575
sg5
F0.09666666666666666
ssS'3,11'
p1318
(dp1319
g4
F0.06
sg5
F0.10166666666666667
ssS'5,14'
p1320
(dp1321
g4
F0.07416666666666667
sg5
F0.11083333333333334
ssS'13,13'
p1322
(dp1323
g4
F0.24583333333333332
sg5
g6
ssS'5,10'
p1324
(dp1325
g4
F0.059166666666666666
sg5
F0.1325
ssS'5,11'
p1326
(dp1327
g4
F0.058333333333333334
sg5
F0.09583333333333334
ssS'13,14'
p1328
(dp1329
g4
F0.095
sg5
F0.14916666666666667
ssS'5,13'
p1330
(dp1331
g4
F0.060833333333333336
sg5
F0.1225
ssS'14,14'
p1332
(dp1333
g4
F0.2675
sg5
g6
ssS'11,11'
p1334
(dp1335
g4
F0.2325
sg5
g6
ssS'11,12'
p1336
(dp1337
g4
F0.095
sg5
F0.155
ssS'11,13'
p1338
(dp1339
g4
F0.09166666666666666
sg5
F0.15416666666666667
ssS'11,14'
p1340
(dp1341
g4
F0.09583333333333334
sg5
F0.14916666666666667
ssS'10,14'
p1342
(dp1343
g4
F0.08833333333333333
sg5
F0.14666666666666667
ssS'10,13'
p1344
(dp1345
g4
F0.10416666666666667
sg5
F0.13583333333333333
ssS'10,12'
p1346
(dp1347
g4
F0.09416666666666666
sg5
F0.15333333333333332
ssS'10,11'
p1348
(dp1349
g4
F0.10333333333333333
sg5
F0.155
ssS'10,10'
p1350
(dp1351
g4
F0.20916666666666667
sg5
g6
ssS'6,9'
p1352
(dp1353
g4
F0.06916666666666667
sg5
F0.1225
ssS'6,8'
p1354
(dp1355
g4
F0.06583333333333333
sg5
F0.1325
ssS'6,7'
p1356
(dp1357
g4
F0.07833333333333334
sg5
F0.10833333333333334
ssS'6,6'
p1358
(dp1359
g4
F0.21916666666666668
sg5
g6
ssS'6,14'
p1360
(dp1361
g4
F0.06666666666666667
sg5
F0.13583333333333333
ssS'6,11'
p1362
(dp1363
g4
F0.05416666666666667
sg5
F0.09416666666666666
ssS'6,10'
p1364
(dp1365
g4
F0.05583333333333333
sg5
F0.10666666666666667
ssS'6,13'
p1366
(dp1367
g4
F0.059166666666666666
sg5
F0.1175
ssS'6,12'
p1368
(dp1369
g4
F0.050833333333333335
sg5
F0.12666666666666668
ssS'8,9'
p1370
(dp1371
g4
F0.08333333333333333
sg5
F0.12333333333333334
ssS'8,8'
p1372
(dp1373
g4
F0.215
sg5
g6
ssS'12,13'
p1374
(dp1375
g4
F0.10833333333333334
sg5
F0.145
ssS'12,12'
p1376
(dp1377
g4
F0.22666666666666666
sg5
g6
ssS'12,14'
p1378
(dp1379
g4
F0.09666666666666666
sg5
F0.16333333333333333
ssS'4,9'
p1380
(dp1381
g4
F0.05416666666666667
sg5
F0.09333333333333334
ssS'4,8'
p1382
(dp1383
g4
F0.055
sg5
F0.09833333333333333
ssS'2,9'
p1384
(dp1385
g4
F0.0475
sg5
F0.08333333333333333
ssS'2,8'
p1386
(dp1387
g4
F0.0425
sg5
F0.1025
ssS'2,5'
p1388
(dp1389
g4
F0.05583333333333333
sg5
F0.1125
ssS'2,4'
p1390
(dp1391
g4
F0.056666666666666664
sg5
F0.09083333333333334
ssS'2,7'
p1392
(dp1393
g4
F0.051666666666666666
sg5
F0.105
ssS'2,6'
p1394
(dp1395
g4
F0.0475
sg5
F0.10583333333333333
ssS'2,3'
p1396
(dp1397
g4
F0.05583333333333333
sg5
F0.10083333333333333
ssS'2,2'
p1398
(dp1399
g4
F0.21
sg5
g6
ssS'4,7'
p1400
(dp1401
g4
F0.07166666666666667
sg5
F0.09916666666666667
ssS'4,6'
p1402
(dp1403
g4
F0.060833333333333336
sg5
F0.11
ssS'4,5'
p1404
(dp1405
g4
F0.06333333333333334
sg5
F0.115
ssS'4,4'
p1406
(dp1407
g4
F0.20833333333333334
sg5
g6
ssS'2,11'
p1408
(dp1409
g4
F0.049166666666666664
sg5
F0.09166666666666666
ssS'2,10'
p1410
(dp1411
g4
F0.04416666666666667
sg5
F0.10166666666666667
ssS'2,13'
p1412
(dp1413
g4
F0.051666666666666666
sg5
F0.11166666666666666
ssS'2,12'
p1414
(dp1415
g4
F0.051666666666666666
sg5
F0.09916666666666667
ssS'2,14'
p1416
(dp1417
g4
F0.06666666666666667
sg5
F0.1175
ssS'5,5'
p1418
(dp1419
g4
F0.20583333333333334
sg5
g6
ssS'8,13'
p1420
(dp1421
g4
F0.06833333333333333
sg5
F0.1325
ssS'8,12'
p1422
(dp1423
g4
F0.0625
sg5
F0.12083333333333333
ssS'8,11'
p1424
(dp1425
g4
F0.07666666666666666
sg5
F0.15583333333333332
ssS'8,10'
p1426
(dp1427
g4
F0.08833333333333333
sg5
F0.13083333333333333
ssS'8,14'
p1428
(dp1429
g4
F0.06166666666666667
sg5
F0.14833333333333334
ssS'7,12'
p1430
(dp1431
g4
F0.058333333333333334
sg5
F0.1275
ssS'7,13'
p1432
(dp1433
g4
F0.06166666666666667
sg5
F0.12
ssS'7,10'
p1434
(dp1435
g4
F0.059166666666666666
sg5
F0.1275
ssS'7,11'
p1436
(dp1437
g4
F0.0625
sg5
F0.1175
ssS'7,14'
p1438
(dp1439
g4
F0.058333333333333334
sg5
F0.12416666666666666
ssS'4,14'
p1440
(dp1441
g4
F0.065
sg5
F0.12583333333333332
ssS'4,13'
p1442
(dp1443
g4
F0.06583333333333333
sg5
F0.11083333333333334
ssS'4,12'
p1444
(dp1445
g4
F0.045
sg5
F0.11833333333333333
ssS'4,11'
p1446
(dp1447
g4
F0.06166666666666667
sg5
F0.12333333333333334
ssS'4,10'
p1448
(dp1449
g4
F0.05416666666666667
sg5
F0.10666666666666667
ssS'7,8'
p1450
(dp1451
g4
F0.08166666666666667
sg5
F0.135
ssS'7,9'
p1452
(dp1453
g4
F0.07666666666666666
sg5
F0.12083333333333333
ssS'9,9'
p1454
(dp1455
g4
F0.2275
sg5
g6
ssS'5,12'
p1456
(dp1457
g4
F0.06
sg5
F0.11
ssS'9,10'
p1458
(dp1459
g4
F0.09416666666666666
sg5
F0.13166666666666665
ssS'9,11'
p1460
(dp1461
g4
F0.0875
sg5
F0.14083333333333334
ssS'9,12'
p1462
(dp1463
g4
F0.08333333333333333
sg5
F0.12833333333333333
ssS'9,13'
p1464
(dp1465
g4
F0.08583333333333333
sg5
F0.12166666666666667
ssS'9,14'
p1466
(dp1467
g4
F0.07
sg5
F0.135
sssI10
(dp1468
S'7,7'
p1469
(dp1470
g4
F0.20916666666666667
sg5
g6
ssS'5,8'
p1471
(dp1472
g4
F0.05
sg5
F0.09333333333333334
ssS'5,9'
p1473
(dp1474
g4
F0.04083333333333333
sg5
F0.10333333333333333
ssS'3,8'
p1475
(dp1476
g4
F0.0425
sg5
F0.09833333333333333
ssS'3,9'
p1477
(dp1478
g4
F0.03666666666666667
sg5
F0.08916666666666667
ssS'3,4'
p1479
(dp1480
g4
F0.04666666666666667
sg5
F0.10833333333333334
ssS'3,5'
p1481
(dp1482
g4
F0.0525
sg5
F0.0925
ssS'3,6'
p1483
(dp1484
g4
F0.04583333333333333
sg5
F0.095
ssS'3,7'
p1485
(dp1486
g4
F0.04583333333333333
sg5
F0.0825
ssS'5,6'
p1487
(dp1488
g4
F0.065
sg5
F0.1075
ssS'5,7'
p1489
(dp1490
g4
F0.058333333333333334
sg5
F0.105
ssS'3,3'
p1491
(dp1492
g4
F0.20416666666666666
sg5
g6
ssS'3,14'
p1493
(dp1494
g4
F0.0625
sg5
F0.10916666666666666
ssS'3,12'
p1495
(dp1496
g4
F0.049166666666666664
sg5
F0.09166666666666666
ssS'3,13'
p1497
(dp1498
g4
F0.05
sg5
F0.09916666666666667
ssS'3,10'
p1499
(dp1500
g4
F0.045
sg5
F0.08666666666666667
ssS'3,11'
p1501
(dp1502
g4
F0.045
sg5
F0.09083333333333334
ssS'5,14'
p1503
(dp1504
g4
F0.06333333333333334
sg5
F0.10916666666666666
ssS'13,13'
p1505
(dp1506
g4
F0.24166666666666667
sg5
g6
ssS'5,10'
p1507
(dp1508
g4
F0.04083333333333333
sg5
F0.10083333333333333
ssS'5,11'
p1509
(dp1510
g4
F0.05416666666666667
sg5
F0.1025
ssS'13,14'
p1511
(dp1512
g4
F0.07916666666666666
sg5
F0.16916666666666666
ssS'5,13'
p1513
(dp1514
g4
F0.059166666666666666
sg5
F0.1225
ssS'14,14'
p1515
(dp1516
g4
F0.25
sg5
g6
ssS'11,11'
p1517
(dp1518
g4
F0.20833333333333334
sg5
g6
ssS'11,12'
p1519
(dp1520
g4
F0.08916666666666667
sg5
F0.14333333333333334
ssS'11,13'
p1521
(dp1522
g4
F0.08833333333333333
sg5
F0.13083333333333333
ssS'11,14'
p1523
(dp1524
g4
F0.0725
sg5
F0.15083333333333335
ssS'10,14'
p1525
(dp1526
g4
F0.0775
sg5
F0.12833333333333333
ssS'10,13'
p1527
(dp1528
g4
F0.07083333333333333
sg5
F0.13166666666666665
ssS'10,12'
p1529
(dp1530
g4
F0.07083333333333333
sg5
F0.14166666666666666
ssS'10,11'
p1531
(dp1532
g4
F0.0975
sg5
F0.14333333333333334
ssS'10,10'
p1533
(dp1534
g4
F0.2025
sg5
g6
ssS'6,9'
p1535
(dp1536
g4
F0.060833333333333336
sg5
F0.1075
ssS'6,8'
p1537
(dp1538
g4
F0.0625
sg5
F0.11
ssS'6,7'
p1539
(dp1540
g4
F0.07833333333333334
sg5
F0.11166666666666666
ssS'6,6'
p1541
(dp1542
g4
F0.19833333333333333
sg5
g6
ssS'6,14'
p1543
(dp1544
g4
F0.0625
sg5
F0.11166666666666666
ssS'6,11'
p1545
(dp1546
g4
F0.059166666666666666
sg5
F0.10916666666666666
ssS'6,10'
p1547
(dp1548
g4
F0.04083333333333333
sg5
F0.10583333333333333
ssS'6,13'
p1549
(dp1550
g4
F0.059166666666666666
sg5
F0.1175
ssS'6,12'
p1551
(dp1552
g4
F0.050833333333333335
sg5
F0.11166666666666666
ssS'8,9'
p1553
(dp1554
g4
F0.07416666666666667
sg5
F0.1225
ssS'8,8'
p1555
(dp1556
g4
F0.19833333333333333
sg5
g6
ssS'12,13'
p1557
(dp1558
g4
F0.08916666666666667
sg5
F0.15833333333333333
ssS'12,12'
p1559
(dp1560
g4
F0.24416666666666667
sg5
g6
ssS'12,14'
p1561
(dp1562
g4
F0.10166666666666667
sg5
F0.16
ssS'4,9'
p1563
(dp1564
g4
F0.0525
sg5
F0.10083333333333333
ssS'4,8'
p1565
(dp1566
g4
F0.0475
sg5
F0.11166666666666666
ssS'2,9'
p1567
(dp1568
g4
F0.04833333333333333
sg5
F0.095
ssS'2,8'
p1569
(dp1570
g4
F0.043333333333333335
sg5
F0.0925
ssS'2,5'
p1571
(dp1572
g4
F0.06583333333333333
sg5
F0.11333333333333333
ssS'2,4'
p1573
(dp1574
g4
F0.051666666666666666
sg5
F0.09333333333333334
ssS'2,7'
p1575
(dp1576
g4
F0.05
sg5
F0.08416666666666667
ssS'2,6'
p1577
(dp1578
g4
F0.04833333333333333
sg5
F0.08166666666666667
ssS'2,3'
p1579
(dp1580
g4
F0.04
sg5
F0.1
ssS'2,2'
p1581
(dp1582
g4
F0.19
sg5
g6
ssS'4,7'
p1583
(dp1584
g4
F0.045
sg5
F0.09416666666666666
ssS'4,6'
p1585
(dp1586
g4
F0.06416666666666666
sg5
F0.1
ssS'4,5'
p1587
(dp1588
g4
F0.0725
sg5
F0.10083333333333333
ssS'4,4'
p1589
(dp1590
g4
F0.195
sg5
g6
ssS'2,11'
p1591
(dp1592
g4
F0.034166666666666665
sg5
F0.09416666666666666
ssS'2,10'
p1593
(dp1594
g4
F0.04583333333333333
sg5
F0.0775
ssS'2,13'
p1595
(dp1596
g4
F0.04083333333333333
sg5
F0.09666666666666666
ssS'2,12'
p1597
(dp1598
g4
F0.045
sg5
F0.07916666666666666
ssS'2,14'
p1599
(dp1600
g4
F0.041666666666666664
sg5
F0.1025
ssS'5,5'
p1601
(dp1602
g4
F0.1875
sg5
g6
ssS'8,13'
p1603
(dp1604
g4
F0.065
sg5
F0.1075
ssS'8,12'
p1605
(dp1606
g4
F0.0625
sg5
F0.11666666666666667
ssS'8,11'
p1607
(dp1608
g4
F0.058333333333333334
sg5
F0.13666666666666666
ssS'8,10'
p1609
(dp1610
g4
F0.07916666666666666
sg5
F0.11916666666666667
ssS'8,14'
p1611
(dp1612
g4
F0.056666666666666664
sg5
F0.11083333333333334
ssS'7,12'
p1613
(dp1614
g4
F0.05416666666666667
sg5
F0.115
ssS'7,13'
p1615
(dp1616
g4
F0.045
sg5
F0.11416666666666667
ssS'7,10'
p1617
(dp1618
g4
F0.08
sg5
F0.11083333333333334
ssS'7,11'
p1619
(dp1620
g4
F0.045
sg5
F0.12
ssS'7,14'
p1621
(dp1622
g4
F0.056666666666666664
sg5
F0.14
ssS'4,14'
p1623
(dp1624
g4
F0.06833333333333333
sg5
F0.105
ssS'4,13'
p1625
(dp1626
g4
F0.05333333333333334
sg5
F0.08583333333333333
ssS'4,12'
p1627
(dp1628
g4
F0.04583333333333333
sg5
F0.09083333333333334
ssS'4,11'
p1629
(dp1630
g4
F0.0425
sg5
F0.085
ssS'4,10'
p1631
(dp1632
g4
F0.041666666666666664
sg5
F0.0975
ssS'7,8'
p1633
(dp1634
g4
F0.08166666666666667
sg5
F0.11666666666666667
ssS'7,9'
p1635
(dp1636
g4
F0.0675
sg5
F0.11333333333333333
ssS'9,9'
p1637
(dp1638
g4
F0.225
sg5
g6
ssS'5,12'
p1639
(dp1640
g4
F0.055
sg5
F0.105
ssS'9,10'
p1641
(dp1642
g4
F0.07
sg5
F0.13333333333333333
ssS'9,11'
p1643
(dp1644
g4
F0.07916666666666666
sg5
F0.12166666666666667
ssS'9,12'
p1645
(dp1646
g4
F0.06916666666666667
sg5
F0.12833333333333333
ssS'9,13'
p1647
(dp1648
g4
F0.05583333333333333
sg5
F0.13583333333333333
ssS'9,14'
p1649
(dp1650
g4
F0.060833333333333336
sg5
F0.13333333333333333
sss.